target datalayout = "e-m:e-p270:32:32-p271:32:32-p272:64:64-i64:64-i128:128-f80:128-n8:16:32:64-S128"
target triple = "x86_64-pc-linux-gnu"

%struct.wtap = type { ptr, ptr, i8, i32, i32, ptr, ptr, ptr, i32, ptr, ptr, ptr, ptr, ptr, ptr, ptr, ptr, ptr, ptr, i32, i32, ptr, ptr, ptr, ptr }
%struct.autosar_dlt_data = type { ptr, i32 }
%struct.autosar_dlt_params = type { ptr, ptr, ptr, ptr }
%struct.wtapng_if_descr_mandatory_s = type { i32, i64, i32, i32, i8, ptr }

; Function Attrs: null_pointer_is_valid sspstrong uwtable
define internal i32 @autosar_dlt_add_interface(ptr noundef %0, ptr noundef %1) #0 {
  %3 = alloca ptr, align 8
  %4 = alloca ptr, align 8
  %5 = alloca ptr, align 8
  %6 = alloca ptr, align 8
  %7 = alloca i32, align 4
  %8 = alloca i32, align 4
  store ptr %0, ptr %3, align 8
  store ptr %1, ptr %4, align 8
  call void @llvm.lifetime.start.p0(i64 8, ptr %5) #9
  %9 = call ptr @wtap_block_create(i32 noundef 1)
  store ptr %9, ptr %5, align 8
  call void @llvm.lifetime.start.p0(i64 8, ptr %6) #9
  %10 = load ptr, ptr %5, align 8
  %11 = call ptr @wtap_block_get_mandatory_data(ptr noundef %10)
  store ptr %11, ptr %6, align 8
  %12 = load ptr, ptr %6, align 8
  %13 = getelementptr inbounds nuw %struct.wtapng_if_descr_mandatory_s, ptr %12, i32 0, i32 0
  store i32 218, ptr %13, align 8
  %14 = load ptr, ptr %5, align 8
  %15 = load ptr, ptr %4, align 8
  %16 = call i32 @wtap_block_add_string_option(ptr noundef %14, i32 noundef 2, ptr noundef %15, i64 noundef 4)
  %17 = load ptr, ptr %6, align 8
  %18 = getelementptr inbounds nuw %struct.wtapng_if_descr_mandatory_s, ptr %17, i32 0, i32 1
  store i64 1000000000, ptr %18, align 8
  %19 = load ptr, ptr %6, align 8
  %20 = getelementptr inbounds nuw %struct.wtapng_if_descr_mandatory_s, ptr %19, i32 0, i32 2
  store i32 9, ptr %20, align 8
  %21 = load ptr, ptr %5, align 8
  %22 = call i32 @wtap_block_add_uint8_option(ptr noundef %21, i32 noundef 9, i8 noundef zeroext 9)
  %23 = load ptr, ptr %6, align 8
  %24 = getelementptr inbounds nuw %struct.wtapng_if_descr_mandatory_s, ptr %23, i32 0, i32 3
  store i32 262144, ptr %24, align 4
  %25 = load ptr, ptr %6, align 8
  %26 = getelementptr inbounds nuw %struct.wtapng_if_descr_mandatory_s, ptr %25, i32 0, i32 4
  store i8 0, ptr %26, align 8
  %27 = load ptr, ptr %6, align 8
  %28 = getelementptr inbounds nuw %struct.wtapng_if_descr_mandatory_s, ptr %27, i32 0, i32 5
  store ptr null, ptr %28, align 8
  %29 = load ptr, ptr %3, align 8
  %30 = getelementptr inbounds nuw %struct.autosar_dlt_params, ptr %29, i32 0, i32 0
  %31 = load ptr, ptr %30, align 8
  %32 = load ptr, ptr %5, align 8
  call void @wtap_add_idb(ptr noundef %31, ptr noundef %32)
  %33 = load ptr, ptr %3, align 8
  %34 = getelementptr inbounds nuw %struct.autosar_dlt_params, ptr %33, i32 0, i32 0
  %35 = load ptr, ptr %34, align 8
  %36 = getelementptr inbounds nuw %struct.wtap, ptr %35, i32 0, i32 19
  %37 = load i32, ptr %36, align 8
  %38 = icmp eq i32 %37, 0
  br i1 %38, label %39, label %47

39:                                               ; preds = %2
  %40 = load ptr, ptr %6, align 8
  %41 = getelementptr inbounds nuw %struct.wtapng_if_descr_mandatory_s, ptr %40, i32 0, i32 0
  %42 = load i32, ptr %41, align 8
  %43 = load ptr, ptr %3, align 8
  %44 = getelementptr inbounds nuw %struct.autosar_dlt_params, ptr %43, i32 0, i32 0
  %45 = load ptr, ptr %44, align 8
  %46 = getelementptr inbounds nuw %struct.wtap, ptr %45, i32 0, i32 19
  store i32 %42, ptr %46, align 8
  br label %63

47:                                               ; preds = %2
  %48 = load ptr, ptr %3, align 8
  %49 = getelementptr inbounds nuw %struct.autosar_dlt_params, ptr %48, i32 0, i32 0
  %50 = load ptr, ptr %49, align 8
  %51 = getelementptr inbounds nuw %struct.wtap, ptr %50, i32 0, i32 19
  %52 = load i32, ptr %51, align 8
  %53 = load ptr, ptr %6, align 8
  %54 = getelementptr inbounds nuw %struct.wtapng_if_descr_mandatory_s, ptr %53, i32 0, i32 0
  %55 = load i32, ptr %54, align 8
  %56 = icmp ne i32 %52, %55
  br i1 %56, label %57, label %62

57:                                               ; preds = %47
  %58 = load ptr, ptr %3, align 8
  %59 = getelementptr inbounds nuw %struct.autosar_dlt_params, ptr %58, i32 0, i32 0
  %60 = load ptr, ptr %59, align 8
  %61 = getelementptr inbounds nuw %struct.wtap, ptr %60, i32 0, i32 19
  store i32 -1, ptr %61, align 8
  br label %62

62:                                               ; preds = %57, %47
  br label %63

63:                                               ; preds = %62, %39
  call void @llvm.lifetime.start.p0(i64 4, ptr %7) #9
  %64 = load ptr, ptr %4, align 8
  %65 = call i32 @autosar_dlt_calc_key(ptr noundef %64)
  store i32 %65, ptr %7, align 4
  call void @llvm.lifetime.start.p0(i64 4, ptr %8) #9
  %66 = load ptr, ptr %3, align 8
  %67 = getelementptr inbounds nuw %struct.autosar_dlt_params, ptr %66, i32 0, i32 3
  %68 = load ptr, ptr %67, align 8
  %69 = getelementptr inbounds nuw %struct.autosar_dlt_data, ptr %68, i32 0, i32 1
  %70 = load i32, ptr %69, align 8
  %71 = add i32 %70, 1
  store i32 %71, ptr %69, align 8
  store i32 %70, ptr %8, align 4
  %72 = load ptr, ptr %3, align 8
  %73 = getelementptr inbounds nuw %struct.autosar_dlt_params, ptr %72, i32 0, i32 3
  %74 = load ptr, ptr %73, align 8
  %75 = getelementptr inbounds nuw %struct.autosar_dlt_data, ptr %74, i32 0, i32 0
  %76 = load ptr, ptr %75, align 8
  %77 = load i32, ptr %7, align 4
  %78 = sext i32 %77 to i64
  %79 = inttoptr i64 %78 to ptr
  %80 = load i32, ptr %8, align 4
  %81 = zext i32 %80 to i64
  %82 = inttoptr i64 %81 to ptr
  %83 = call i32 @g_hash_table_insert(ptr noundef %76, ptr noundef %79, ptr noundef %82)
  %84 = load i32, ptr %8, align 4
  call void @llvm.lifetime.end.p0(i64 4, ptr %8) #9
  call void @llvm.lifetime.end.p0(i64 4, ptr %7) #9
  call void @llvm.lifetime.end.p0(i64 8, ptr %6) #9
  call void @llvm.lifetime.end.p0(i64 8, ptr %5) #9
  ret i32 %84
}

; Function Attrs: nounwind null_pointer_is_valid sspstrong uwtable
define internal i32 @autosar_dlt_calc_key(ptr noundef %0) #8 {
  %2 = alloca ptr, align 8
  store ptr %0, ptr %2, align 8
  %3 = load ptr, ptr %2, align 8
  %4 = getelementptr i8, ptr %3, i64 0
  %5 = load i8, ptr %4, align 1
  %6 = zext i8 %5 to i32
  %7 = shl i32 %6, 24
  %8 = load ptr, ptr %2, align 8
  %9 = getelementptr i8, ptr %8, i64 1
  %10 = load i8, ptr %9, align 1
  %11 = zext i8 %10 to i32
  %12 = shl i32 %11, 16
  %13 = or i32 %7, %12
  %14 = load ptr, ptr %2, align 8
  %15 = getelementptr i8, ptr %14, i64 2
  %16 = load i8, ptr %15, align 1
  %17 = zext i8 %16 to i32
  %18 = shl i32 %17, 8
  %19 = or i32 %13, %18
  %20 = load ptr, ptr %2, align 8
  %21 = getelementptr i8, ptr %20, i64 3
  %22 = load i8, ptr %21, align 1
  %23 = zext i8 %22 to i32
  %24 = or i32 %19, %23
  ret i32 %24
}

; Function Attrs: null_pointer_is_valid sspstrong uwtable
define internal i32 @autosar_dlt_lookup_interface(ptr noundef %0, ptr noundef %1) #0 {
  %3 = alloca i32, align 4
  %4 = alloca ptr, align 8
  %5 = alloca ptr, align 8
  %6 = alloca i32, align 4
  %7 = alloca i32, align 4
  %8 = alloca ptr, align 8
  %9 = alloca i8, align 1
  store ptr %0, ptr %4, align 8
  store ptr %1, ptr %5, align 8
  call void @llvm.lifetime.start.p0(i64 4, ptr %6) #9
  %10 = load ptr, ptr %5, align 8
  %11 = call i32 @autosar_dlt_calc_key(ptr noundef %10)
  store i32 %11, ptr %6, align 4
  %12 = load ptr, ptr %4, align 8
  %13 = getelementptr inbounds nuw %struct.autosar_dlt_params, ptr %12, i32 0, i32 3
  %14 = load ptr, ptr %13, align 8
  %15 = getelementptr inbounds nuw %struct.autosar_dlt_data, ptr %14, i32 0, i32 0
  %16 = load ptr, ptr %15, align 8
  %17 = icmp eq ptr %16, null
  br i1 %17, label %18, label %19

18:                                               ; preds = %2
  store i32 0, ptr %3, align 4
  store i32 1, ptr %7, align 4
  br label %42

19:                                               ; preds = %2
  call void @llvm.lifetime.start.p0(i64 8, ptr %8) #9
  store ptr null, ptr %8, align 8
  call void @llvm.lifetime.start.p0(i64 1, ptr %9) #9
  %20 = load ptr, ptr %4, align 8
  %21 = getelementptr inbounds nuw %struct.autosar_dlt_params, ptr %20, i32 0, i32 3
  %22 = load ptr, ptr %21, align 8
  %23 = getelementptr inbounds nuw %struct.autosar_dlt_data, ptr %22, i32 0, i32 0
  %24 = load ptr, ptr %23, align 8
  %25 = load i32, ptr %6, align 4
  %26 = sext i32 %25 to i64
  %27 = inttoptr i64 %26 to ptr
  %28 = call i32 @g_hash_table_lookup_extended(ptr noundef %24, ptr noundef %27, ptr noundef null, ptr noundef %8)
  %29 = icmp ne i32 %28, 0
  %30 = zext i1 %29 to i8
  store i8 %30, ptr %9, align 1
  %31 = load i8, ptr %9, align 1, !range !6, !noundef !7
  %32 = trunc i8 %31 to i1
  br i1 %32, label %33, label %37

33:                                               ; preds = %19
  %34 = load ptr, ptr %8, align 8
  %35 = ptrtoint ptr %34 to i64
  %36 = trunc i64 %35 to i32
  store i32 %36, ptr %3, align 4
  store i32 1, ptr %7, align 4
  br label %41

37:                                               ; preds = %19
  %38 = load ptr, ptr %4, align 8
  %39 = load ptr, ptr %5, align 8
  %40 = call i32 @autosar_dlt_add_interface(ptr noundef %38, ptr noundef %39)
  store i32 %40, ptr %3, align 4
  store i32 1, ptr %7, align 4
  br label %41

41:                                               ; preds = %37, %33
  call void @llvm.lifetime.end.p0(i64 1, ptr %9) #9
  call void @llvm.lifetime.end.p0(i64 8, ptr %8) #9
  br label %42

42:                                               ; preds = %41, %18
  call void @llvm.lifetime.end.p0(i64 4, ptr %6) #9
  %43 = load i32, ptr %3, align 4
  ret i32 %43
}