; Function Attrs: null_pointer_is_valid sspstrong uwtable
define internal fastcc i32 @autosar_dlt_lookup_interface(ptr noundef readonly captures(none) %0, ptr noundef %1) unnamed_addr #0 {
  %3 = alloca ptr, align 8
  %4 = getelementptr i8, ptr %1, i64 1
  %5 = getelementptr i8, ptr %1, i64 2
  %6 = getelementptr i8, ptr %1, i64 3
  %7 = getelementptr inbounds nuw i8, ptr %0, i64 24
  %8 = load ptr, ptr %7, align 8
  %9 = load ptr, ptr %8, align 8
  %10 = icmp eq ptr %9, null
  br i1 %10, label %76, label %11

11:                                               ; preds = %2
  %12 = load i8, ptr %4, align 1
  %13 = zext i8 %12 to i32
  %14 = shl nuw nsw i32 %13, 16
  %15 = load i8, ptr %1, align 1
  %16 = zext i8 %15 to i32
  %17 = shl nuw i32 %16, 24
  %18 = or disjoint i32 %17, %14
  %19 = load i8, ptr %5, align 1
  %20 = zext i8 %19 to i32
  %21 = shl nuw nsw i32 %20, 8
  %22 = or disjoint i32 %18, %21
  %23 = load i8, ptr %6, align 1
  %24 = zext i8 %23 to i32
  %25 = or disjoint i32 %22, %24
  call void @llvm.lifetime.start.p0(i64 8, ptr nonnull %3) #7
  store ptr null, ptr %3, align 8
  %26 = sext i32 %25 to i64
  %27 = inttoptr i64 %26 to ptr
  %28 = call i32 @g_hash_table_lookup_extended(ptr noundef nonnull %9, ptr noundef %27, ptr noundef null, ptr noundef nonnull %3)
  %.not = icmp eq i32 %28, 0
  br i1 %.not, label %33, label %29

29:                                               ; preds = %11
  %30 = load ptr, ptr %3, align 8
  %31 = ptrtoint ptr %30 to i64
  %32 = trunc i64 %31 to i32
  br label %75

33:                                               ; preds = %11
  %34 = call ptr @wtap_block_create(i32 noundef 1)
  %35 = call ptr @wtap_block_get_mandatory_data(ptr noundef %34)
  store i32 218, ptr %35, align 8
  %36 = call i32 @wtap_block_add_string_option(ptr noundef %34, i32 noundef 2, ptr noundef %1, i64 noundef 4)
  %37 = getelementptr inbounds nuw i8, ptr %35, i64 8
  store i64 1000000000, ptr %37, align 8
  %38 = getelementptr inbounds nuw i8, ptr %35, i64 16
  store i32 9, ptr %38, align 8
  %39 = call i32 @wtap_block_add_uint8_option(ptr noundef %34, i32 noundef 9, i8 noundef zeroext 9)
  %40 = getelementptr inbounds nuw i8, ptr %35, i64 20
  store i32 262144, ptr %40, align 4
  %41 = getelementptr inbounds nuw i8, ptr %35, i64 24
  store i8 0, ptr %41, align 8
  %42 = getelementptr inbounds nuw i8, ptr %35, i64 32
  store ptr null, ptr %42, align 8
  %43 = load ptr, ptr %0, align 8
  call void @wtap_add_idb(ptr noundef %43, ptr noundef %34)
  %44 = load ptr, ptr %0, align 8
  %45 = getelementptr inbounds nuw i8, ptr %44, i64 144
  %46 = load i32, ptr %45, align 8
  %47 = icmp eq i32 %46, 0
  %48 = load i32, ptr %35, align 8
  br i1 %47, label %.sink.split.i, label %49

49:                                               ; preds = %33
  %.not.i = icmp eq i32 %46, %48
  br i1 %.not.i, label %autosar_dlt_add_interface.exit, label %.sink.split.i

.sink.split.i:                                    ; preds = %49, %33
  %.sink.i = phi i32 [ %48, %33 ], [ -1, %49 ]
  store i32 %.sink.i, ptr %45, align 8
  br label %autosar_dlt_add_interface.exit

autosar_dlt_add_interface.exit:                   ; preds = %49, %.sink.split.i
  %50 = load i8, ptr %1, align 1
  %51 = zext i8 %50 to i32
  %52 = shl nuw i32 %51, 24
  %53 = load i8, ptr %4, align 1
  %54 = zext i8 %53 to i32
  %55 = shl nuw nsw i32 %54, 16
  %56 = or disjoint i32 %55, %52
  %57 = load i8, ptr %5, align 1
  %58 = zext i8 %57 to i32
  %59 = shl nuw nsw i32 %58, 8
  %60 = or disjoint i32 %56, %59
  %61 = load i8, ptr %6, align 1
  %62 = zext i8 %61 to i32
  %63 = or disjoint i32 %60, %62
  %64 = load ptr, ptr %7, align 8
  %65 = getelementptr inbounds nuw i8, ptr %64, i64 8
  %66 = load i32, ptr %65, align 8
  %67 = add i32 %66, 1
  store i32 %67, ptr %65, align 8
  %68 = load ptr, ptr %7, align 8
  %69 = load ptr, ptr %68, align 8
  %70 = sext i32 %63 to i64
  %71 = inttoptr i64 %70 to ptr
  %72 = zext i32 %66 to i64
  %73 = inttoptr i64 %72 to ptr
  %74 = call i32 @g_hash_table_insert(ptr noundef %69, ptr noundef %71, ptr noundef %73)
  br label %75

75:                                               ; preds = %autosar_dlt_add_interface.exit, %29
  %.1 = phi i32 [ %32, %29 ], [ %66, %autosar_dlt_add_interface.exit ]
  call void @llvm.lifetime.end.p0(i64 8, ptr nonnull %3) #7
  br label %76

76:                                               ; preds = %2, %75
  %.0 = phi i32 [ %.1, %75 ], [ 0, %2 ]
  ret i32 %.0
}